; ModuleID = '31/735.c'
source_filename = "31/735.c"
target datalayout = "e-m:e-p270:32:32-p271:32:32-p272:64:64-i64:64-f80:128-n8:16:32:64-S128"
target triple = "x86_64-pc-linux-gnu"

%struct.student = type { [100 x i8], [100 x i8], i8, i32, [100 x i8], [100 x i8], %struct.student*, %struct.student* }

@n = common dso_local global i32 0, align 4
@.str = private unnamed_addr constant [4 x i8] c"%s \00", align 1
@.str.1 = private unnamed_addr constant [15 x i8] c"%s %c %d %s %s\00", align 1
@.str.2 = private unnamed_addr constant [19 x i8] c"%s %s %c %d %s %s\0A\00", align 1

; Function Attrs: noinline nounwind uwtable
define dso_local i32 @main() #0 {
  %1 = alloca i32, align 4
  %2 = alloca %struct.student*, align 8
  %3 = alloca %struct.student*, align 8
  %4 = alloca %struct.student*, align 8
  %5 = alloca i32, align 4
  store i32 0, i32* %1, align 4
  store i32 0, i32* @n, align 4
  store i32 0, i32* %5, align 4
  %6 = call noalias i8* @malloc(i64 100) #3
  %7 = bitcast i8* %6 to %struct.student*
  store %struct.student* %7, %struct.student** %4, align 8
  store %struct.student* %7, %struct.student** %3, align 8
  store %struct.student* null, %struct.student** %2, align 8
  br label %8

8:                                                ; preds = %0, %50
  %9 = load i32, i32* @n, align 4
  %10 = add nsw i32 %9, 1
  store i32 %10, i32* @n, align 4
  %11 = load %struct.student*, %struct.student** %3, align 8
  %12 = getelementptr inbounds %struct.student, %struct.student* %11, i32 0, i32 0
  %13 = getelementptr inbounds [100 x i8], [100 x i8]* %12, i64 0, i64 0
  %14 = call i32 (i8*, ...) @__isoc99_scanf(i8* getelementptr inbounds ([4 x i8], [4 x i8]* @.str, i64 0, i64 0), i8* %13)
  %15 = load %struct.student*, %struct.student** %3, align 8
  %16 = getelementptr inbounds %struct.student, %struct.student* %15, i32 0, i32 0
  %17 = getelementptr inbounds [100 x i8], [100 x i8]* %16, i64 0, i64 0
  %18 = load i8, i8* %17, align 8
  %19 = sext i8 %18 to i32
  %20 = icmp eq i32 %19, 101
  br i1 %20, label %21, label %22

21:                                               ; preds = %8
  br label %54

22:                                               ; preds = %8
  %23 = load %struct.student*, %struct.student** %3, align 8
  %24 = getelementptr inbounds %struct.student, %struct.student* %23, i32 0, i32 1
  %25 = getelementptr inbounds [100 x i8], [100 x i8]* %24, i64 0, i64 0
  %26 = load %struct.student*, %struct.student** %3, align 8
  %27 = getelementptr inbounds %struct.student, %struct.student* %26, i32 0, i32 2
  %28 = load %struct.student*, %struct.student** %3, align 8
  %29 = getelementptr inbounds %struct.student, %struct.student* %28, i32 0, i32 3
  %30 = load %struct.student*, %struct.student** %3, align 8
  %31 = getelementptr inbounds %struct.student, %struct.student* %30, i32 0, i32 4
  %32 = getelementptr inbounds [100 x i8], [100 x i8]* %31, i64 0, i64 0
  %33 = load %struct.student*, %struct.student** %3, align 8
  %34 = getelementptr inbounds %struct.student, %struct.student* %33, i32 0, i32 5
  %35 = getelementptr inbounds [100 x i8], [100 x i8]* %34, i64 0, i64 0
  %36 = call i32 (i8*, ...) @__isoc99_scanf(i8* getelementptr inbounds ([15 x i8], [15 x i8]* @.str.1, i64 0, i64 0), i8* %25, i8* %27, i32* %29, i8* %32, i8* %35)
  %37 = load i32, i32* @n, align 4
  %38 = icmp eq i32 %37, 1
  br i1 %38, label %39, label %43

39:                                               ; preds = %22
  %40 = load %struct.student*, %struct.student** %3, align 8
  store %struct.student* %40, %struct.student** %2, align 8
  %41 = load %struct.student*, %struct.student** %3, align 8
  %42 = getelementptr inbounds %struct.student, %struct.student* %41, i32 0, i32 7
  store %struct.student* null, %struct.student** %42, align 8
  br label %50

43:                                               ; preds = %22
  %44 = load %struct.student*, %struct.student** %3, align 8
  %45 = load %struct.student*, %struct.student** %4, align 8
  %46 = getelementptr inbounds %struct.student, %struct.student* %45, i32 0, i32 6
  store %struct.student* %44, %struct.student** %46, align 8
  %47 = load %struct.student*, %struct.student** %4, align 8
  %48 = load %struct.student*, %struct.student** %3, align 8
  %49 = getelementptr inbounds %struct.student, %struct.student* %48, i32 0, i32 7
  store %struct.student* %47, %struct.student** %49, align 8
  br label %50

50:                                               ; preds = %43, %39
  %51 = load %struct.student*, %struct.student** %3, align 8
  store %struct.student* %51, %struct.student** %4, align 8
  %52 = call noalias i8* @malloc(i64 100) #3
  %53 = bitcast i8* %52 to %struct.student*
  store %struct.student* %53, %struct.student** %3, align 8
  br label %8

54:                                               ; preds = %21
  %55 = load %struct.student*, %struct.student** %4, align 8
  %56 = getelementptr inbounds %struct.student, %struct.student* %55, i32 0, i32 6
  store %struct.student* null, %struct.student** %56, align 8
  br label %57

57:                                               ; preds = %54, %83
  %58 = load %struct.student*, %struct.student** %4, align 8
  %59 = getelementptr inbounds %struct.student, %struct.student* %58, i32 0, i32 0
  %60 = getelementptr inbounds [100 x i8], [100 x i8]* %59, i64 0, i64 0
  %61 = load %struct.student*, %struct.student** %4, align 8
  %62 = getelementptr inbounds %struct.student, %struct.student* %61, i32 0, i32 1
  %63 = getelementptr inbounds [100 x i8], [100 x i8]* %62, i64 0, i64 0
  %64 = load %struct.student*, %struct.student** %4, align 8
  %65 = getelementptr inbounds %struct.student, %struct.student* %64, i32 0, i32 2
  %66 = load i8, i8* %65, align 8
  %67 = sext i8 %66 to i32
  %68 = load %struct.student*, %struct.student** %4, align 8
  %69 = getelementptr inbounds %struct.student, %struct.student* %68, i32 0, i32 3
  %70 = load i32, i32* %69, align 4
  %71 = load %struct.student*, %struct.student** %4, align 8
  %72 = getelementptr inbounds %struct.student, %struct.student* %71, i32 0, i32 4
  %73 = getelementptr inbounds [100 x i8], [100 x i8]* %72, i64 0, i64 0
  %74 = load %struct.student*, %struct.student** %4, align 8
  %75 = getelementptr inbounds %struct.student, %struct.student* %74, i32 0, i32 5
  %76 = getelementptr inbounds [100 x i8], [100 x i8]* %75, i64 0, i64 0
  %77 = call i32 (i8*, ...) @printf(i8* getelementptr inbounds ([19 x i8], [19 x i8]* @.str.2, i64 0, i64 0), i8* %60, i8* %63, i32 %67, i32 %70, i8* %73, i8* %76)
  %78 = load %struct.student*, %struct.student** %4, align 8
  %79 = getelementptr inbounds %struct.student, %struct.student* %78, i32 0, i32 7
  %80 = load %struct.student*, %struct.student** %79, align 8
  %81 = icmp eq %struct.student* %80, null
  br i1 %81, label %82, label %83

82:                                               ; preds = %57
  br label %87

83:                                               ; preds = %57
  %84 = load %struct.student*, %struct.student** %4, align 8
  %85 = getelementptr inbounds %struct.student, %struct.student* %84, i32 0, i32 7
  %86 = load %struct.student*, %struct.student** %85, align 8
  store %struct.student* %86, %struct.student** %4, align 8
  br label %57

87:                                               ; preds = %82
  ret i32 0
}

; Function Attrs: nounwind
declare dso_local noalias i8* @malloc(i64) #1

declare dso_local i32 @__isoc99_scanf(i8*, ...) #2

declare dso_local i32 @printf(i8*, ...) #2


!llvm.module.flags = !{!0}
!llvm.ident = !{!1}

!0 = !{i32 1, !"wchar_size", i32 4}
!1 = !{!"clang version 10.0.0-4ubuntu1 "}
